; Function Attrs: mustprogress nofree norecurse nosync nounwind willreturn memory(readwrite, inaccessiblemem: none) uwtable
define void @Bac_ManReadBacVecInt(ptr noundef readonly captures(none) %0, ptr noundef captures(none) %1, ptr noundef captures(none) initializes((4, 8)) %2, i32 noundef %3) local_unnamed_addr #3 {
  %5 = getelementptr i8, ptr %2, i64 8
  %.val7 = load ptr, ptr %5, align 8
  %6 = getelementptr i8, ptr %0, i64 8
  %.val = load ptr, ptr %6, align 8
  %7 = load i32, ptr %1, align 4
  %8 = sext i32 %7 to i64
  %9 = getelementptr inbounds i8, ptr %.val, i64 %8
  %10 = sext i32 %3 to i64
  tail call void @llvm.memcpy.p0.p0.i64(ptr align 4 %.val7, ptr align 1 %9, i64 %10, i1 false)
  %11 = load i32, ptr %1, align 4
  %12 = add nsw i32 %11, %3
  store i32 %12, ptr %1, align 4
  %13 = sdiv i32 %3, 4
  %14 = getelementptr inbounds nuw i8, ptr %2, i64 4
  store i32 %13, ptr %14, align 4
  ret void
}